target datalayout = "e-m:e-p270:32:32-p271:32:32-p272:64:64-i64:64-i128:128-f80:128-n8:16:32:64-S128"
target triple = "x86_64-pc-linux-gnu"

%struct.rlimit = type { i64, i64 }

@max_files_per_process = dso_local global i32 1000, align 4
@max_safe_fds = dso_local global i32 48, align 4
@.str.1 = private unnamed_addr constant [5 x i8] c"fd.c\00", align 1
@.str.9 = private unnamed_addr constant [64 x i8] c"insufficient file descriptors available to start server process\00", align 1
@.str.10 = private unnamed_addr constant [44 x i8] c"System allows %d, server needs at least %d.\00", align 1
@__func__.set_max_safe_fds = private unnamed_addr constant [17 x i8] c"set_max_safe_fds\00", align 1
@.str.11 = private unnamed_addr constant [54 x i8] c"max_safe_fds = %d, usable_fds = %d, already_open = %d\00", align 1
@.str.50 = private unnamed_addr constant [21 x i8] c"getrlimit failed: %m\00", align 1
@__func__.count_usable_fds = private unnamed_addr constant [17 x i8] c"count_usable_fds\00", align 1
@.str.51 = private unnamed_addr constant [65 x i8] c"duplicating stderr file descriptor failed after %d successes: %m\00", align 1

; Function Attrs: nounwind uwtable
define internal void @count_usable_fds(i32 noundef %0, ptr noundef %1, ptr noundef %2) #0 {
  %4 = alloca i32, align 4
  %5 = alloca ptr, align 8
  %6 = alloca ptr, align 8
  %7 = alloca ptr, align 8
  %8 = alloca i32, align 4
  %9 = alloca i32, align 4
  %10 = alloca i32, align 4
  %11 = alloca i32, align 4
  %12 = alloca %struct.rlimit, align 8
  %13 = alloca i32, align 4
  %14 = alloca i32, align 4
  %15 = alloca i32, align 4
  store i32 %0, ptr %4, align 4
  store ptr %1, ptr %5, align 8
  store ptr %2, ptr %6, align 8
  call void @llvm.lifetime.start.p0(i64 8, ptr %7) #14
  call void @llvm.lifetime.start.p0(i64 4, ptr %8) #14
  call void @llvm.lifetime.start.p0(i64 4, ptr %9) #14
  store i32 0, ptr %9, align 4
  call void @llvm.lifetime.start.p0(i64 4, ptr %10) #14
  store i32 0, ptr %10, align 4
  call void @llvm.lifetime.start.p0(i64 4, ptr %11) #14
  call void @llvm.lifetime.start.p0(i64 16, ptr %12) #14
  call void @llvm.lifetime.start.p0(i64 4, ptr %13) #14
  store i32 1024, ptr %8, align 4
  %16 = load i32, ptr %8, align 4
  %17 = sext i32 %16 to i64
  %18 = mul i64 %17, 4
  %19 = call ptr @palloc(i64 noundef %18)
  store ptr %19, ptr %7, align 8
  %20 = call i32 @getrlimit(i32 noundef 7, ptr noundef %12) #14
  store i32 %20, ptr %13, align 4
  %21 = load i32, ptr %13, align 4
  %22 = icmp ne i32 %21, 0
  br i1 %22, label %23, label %34

23:                                               ; preds = %3
  br label %24

24:                                               ; preds = %23
  br i1 false, label %25, label %27

25:                                               ; preds = %24
  %26 = call zeroext i1 @errstart_cold(i32 noundef 19, ptr noundef null) #16
  br i1 %26, label %29, label %31

27:                                               ; preds = %24
  %28 = call zeroext i1 @errstart(i32 noundef 19, ptr noundef null)
  br i1 %28, label %29, label %31

29:                                               ; preds = %27, %25
  %30 = call i32 (ptr, ...) @errmsg(ptr noundef @.str.50)
  call void @errfinish(ptr noundef @.str.1, i32 noundef 982, ptr noundef @__func__.count_usable_fds)
  br label %31

31:                                               ; preds = %29, %27, %25
  br label %32

32:                                               ; preds = %31
  br label %33

33:                                               ; preds = %32
  br label %34

34:                                               ; preds = %33, %3
  br label %35

35:                                               ; preds = %103, %34
  call void @llvm.lifetime.start.p0(i64 4, ptr %14) #14
  %36 = load i32, ptr %13, align 4
  %37 = icmp eq i32 %36, 0
  br i1 %37, label %38, label %46

38:                                               ; preds = %35
  %39 = load i32, ptr %10, align 4
  %40 = sext i32 %39 to i64
  %41 = getelementptr inbounds nuw %struct.rlimit, ptr %12, i32 0, i32 0
  %42 = load i64, ptr %41, align 8
  %43 = sub i64 %42, 1
  %44 = icmp uge i64 %40, %43
  br i1 %44, label %45, label %46

45:                                               ; preds = %38
  store i32 4, ptr %15, align 4
  br label %101

46:                                               ; preds = %38, %35
  %47 = call i32 @dup(i32 noundef 2) #14
  store i32 %47, ptr %14, align 4
  %48 = load i32, ptr %14, align 4
  %49 = icmp slt i32 %48, 0
  br i1 %49, label %50, label %71

50:                                               ; preds = %46
  %51 = call ptr @__errno_location() #15
  %52 = load i32, ptr %51, align 4
  %53 = icmp ne i32 %52, 24
  br i1 %53, label %54, label %70

54:                                               ; preds = %50
  %55 = call ptr @__errno_location() #15
  %56 = load i32, ptr %55, align 4
  %57 = icmp ne i32 %56, 23
  br i1 %57, label %58, label %70

58:                                               ; preds = %54
  br label %59

59:                                               ; preds = %58
  br i1 false, label %60, label %62

60:                                               ; preds = %59
  %61 = call zeroext i1 @errstart_cold(i32 noundef 19, ptr noundef null) #16
  br i1 %61, label %64, label %67

62:                                               ; preds = %59
  %63 = call zeroext i1 @errstart(i32 noundef 19, ptr noundef null)
  br i1 %63, label %64, label %67

64:                                               ; preds = %62, %60
  %65 = load i32, ptr %9, align 4
  %66 = call i32 (ptr, ...) @errmsg_internal(ptr noundef @.str.51, i32 noundef %65)
  call void @errfinish(ptr noundef @.str.1, i32 noundef 1005, ptr noundef @__func__.count_usable_fds)
  br label %67

67:                                               ; preds = %64, %62, %60
  br label %68

68:                                               ; preds = %67
  br label %69

69:                                               ; preds = %68
  br label %70

70:                                               ; preds = %69, %54, %50
  store i32 4, ptr %15, align 4
  br label %101

71:                                               ; preds = %46
  %72 = load i32, ptr %9, align 4
  %73 = load i32, ptr %8, align 4
  %74 = icmp sge i32 %72, %73
  br i1 %74, label %75, label %83

75:                                               ; preds = %71
  %76 = load i32, ptr %8, align 4
  %77 = mul i32 %76, 2
  store i32 %77, ptr %8, align 4
  %78 = load ptr, ptr %7, align 8
  %79 = load i32, ptr %8, align 4
  %80 = sext i32 %79 to i64
  %81 = mul i64 %80, 4
  %82 = call ptr @repalloc(ptr noundef %78, i64 noundef %81)
  store ptr %82, ptr %7, align 8
  br label %83

83:                                               ; preds = %75, %71
  %84 = load i32, ptr %14, align 4
  %85 = load ptr, ptr %7, align 8
  %86 = load i32, ptr %9, align 4
  %87 = add i32 %86, 1
  store i32 %87, ptr %9, align 4
  %88 = sext i32 %86 to i64
  %89 = getelementptr inbounds i32, ptr %85, i64 %88
  store i32 %84, ptr %89, align 4
  %90 = load i32, ptr %10, align 4
  %91 = load i32, ptr %14, align 4
  %92 = icmp slt i32 %90, %91
  br i1 %92, label %93, label %95

93:                                               ; preds = %83
  %94 = load i32, ptr %14, align 4
  store i32 %94, ptr %10, align 4
  br label %95

95:                                               ; preds = %93, %83
  %96 = load i32, ptr %9, align 4
  %97 = load i32, ptr %4, align 4
  %98 = icmp sge i32 %96, %97
  br i1 %98, label %99, label %100

99:                                               ; preds = %95
  store i32 4, ptr %15, align 4
  br label %101

100:                                              ; preds = %95
  store i32 0, ptr %15, align 4
  br label %101

101:                                              ; preds = %100, %99, %70, %45
  call void @llvm.lifetime.end.p0(i64 4, ptr %14) #14
  %102 = load i32, ptr %15, align 4
  switch i32 %102, label %128 [
    i32 0, label %103
    i32 4, label %104
  ]

103:                                              ; preds = %101
  br label %35

104:                                              ; preds = %101
  store i32 0, ptr %11, align 4
  br label %105

105:                                              ; preds = %116, %104
  %106 = load i32, ptr %11, align 4
  %107 = load i32, ptr %9, align 4
  %108 = icmp slt i32 %106, %107
  br i1 %108, label %109, label %119

109:                                              ; preds = %105
  %110 = load ptr, ptr %7, align 8
  %111 = load i32, ptr %11, align 4
  %112 = sext i32 %111 to i64
  %113 = getelementptr inbounds i32, ptr %110, i64 %112
  %114 = load i32, ptr %113, align 4
  %115 = call i32 @close(i32 noundef %114)
  br label %116

116:                                              ; preds = %109
  %117 = load i32, ptr %11, align 4
  %118 = add i32 %117, 1
  store i32 %118, ptr %11, align 4
  br label %105, !llvm.loop !9

119:                                              ; preds = %105
  %120 = load ptr, ptr %7, align 8
  call void @pfree(ptr noundef %120)
  %121 = load i32, ptr %9, align 4
  %122 = load ptr, ptr %5, align 8
  store i32 %121, ptr %122, align 4
  %123 = load i32, ptr %10, align 4
  %124 = add i32 %123, 1
  %125 = load i32, ptr %9, align 4
  %126 = sub i32 %124, %125
  %127 = load ptr, ptr %6, align 8
  store i32 %126, ptr %127, align 4
  call void @llvm.lifetime.end.p0(i64 4, ptr %13) #14
  call void @llvm.lifetime.end.p0(i64 16, ptr %12) #14
  call void @llvm.lifetime.end.p0(i64 4, ptr %11) #14
  call void @llvm.lifetime.end.p0(i64 4, ptr %10) #14
  call void @llvm.lifetime.end.p0(i64 4, ptr %9) #14
  call void @llvm.lifetime.end.p0(i64 4, ptr %8) #14
  call void @llvm.lifetime.end.p0(i64 8, ptr %7) #14
  ret void

128:                                              ; preds = %101
  unreachable
}

; Function Attrs: nounwind uwtable
define dso_local void @set_max_safe_fds() #0 {
  %1 = alloca i32, align 4
  %2 = alloca i32, align 4
  call void @llvm.lifetime.start.p0(i64 4, ptr %1) #14
  call void @llvm.lifetime.start.p0(i64 4, ptr %2) #14
  %3 = load i32, ptr @max_files_per_process, align 4
  call void @count_usable_fds(i32 noundef %3, ptr noundef %1, ptr noundef %2)
  %4 = load i32, ptr %1, align 4
  %5 = load i32, ptr @max_files_per_process, align 4
  %6 = load i32, ptr %2, align 4
  %7 = sub i32 %5, %6
  %8 = icmp slt i32 %4, %7
  br i1 %8, label %9, label %11

9:                                                ; preds = %0
  %10 = load i32, ptr %1, align 4
  br label %15

11:                                               ; preds = %0
  %12 = load i32, ptr @max_files_per_process, align 4
  %13 = load i32, ptr %2, align 4
  %14 = sub i32 %12, %13
  br label %15

15:                                               ; preds = %11, %9
  %16 = phi i32 [ %10, %9 ], [ %14, %11 ]
  store i32 %16, ptr @max_safe_fds, align 4
  %17 = load i32, ptr @max_safe_fds, align 4
  %18 = sub i32 %17, 10
  store i32 %18, ptr @max_safe_fds, align 4
  %19 = load i32, ptr @max_safe_fds, align 4
  %20 = icmp slt i32 %19, 48
  br i1 %20, label %21, label %36

21:                                               ; preds = %15
  br label %22

22:                                               ; preds = %21
  br i1 true, label %23, label %25

23:                                               ; preds = %22
  %24 = call zeroext i1 @errstart_cold(i32 noundef 22, ptr noundef null) #16
  br i1 %24, label %27, label %33

25:                                               ; preds = %22
  %26 = call zeroext i1 @errstart(i32 noundef 22, ptr noundef null)
  br i1 %26, label %27, label %33

27:                                               ; preds = %25, %23
  %28 = call i32 @errcode(i32 noundef 197)
  %29 = call i32 (ptr, ...) @errmsg(ptr noundef @.str.9)
  %30 = load i32, ptr @max_safe_fds, align 4
  %31 = add i32 %30, 10
  %32 = call i32 (ptr, ...) @errdetail(ptr noundef @.str.10, i32 noundef %31, i32 noundef 58)
  call void @errfinish(ptr noundef @.str.1, i32 noundef 1075, ptr noundef @__func__.set_max_safe_fds)
  br label %33

33:                                               ; preds = %27, %25, %23
  unreachable

34:                                               ; No predecessors!
  br label %35

35:                                               ; preds = %34
  br label %36

36:                                               ; preds = %35, %15
  br label %37

37:                                               ; preds = %36
  br i1 false, label %38, label %40

38:                                               ; preds = %37
  %39 = call zeroext i1 @errstart_cold(i32 noundef 13, ptr noundef null) #16
  br i1 %39, label %42, label %47

40:                                               ; preds = %37
  %41 = call zeroext i1 @errstart(i32 noundef 13, ptr noundef null)
  br i1 %41, label %42, label %47

42:                                               ; preds = %40, %38
  %43 = load i32, ptr @max_safe_fds, align 4
  %44 = load i32, ptr %1, align 4
  %45 = load i32, ptr %2, align 4
  %46 = call i32 (ptr, ...) @errmsg_internal(ptr noundef @.str.11, i32 noundef %43, i32 noundef %44, i32 noundef %45)
  call void @errfinish(ptr noundef @.str.1, i32 noundef 1078, ptr noundef @__func__.set_max_safe_fds)
  br label %47

47:                                               ; preds = %42, %40, %38
  br label %48

48:                                               ; preds = %47
  br label %49

49:                                               ; preds = %48
  call void @llvm.lifetime.end.p0(i64 4, ptr %2) #14
  call void @llvm.lifetime.end.p0(i64 4, ptr %1) #14
  ret void
}