; Function Attrs: nounwind uwtable
define dso_local void @set_max_safe_fds() local_unnamed_addr #0 {
  %1 = alloca %struct.rlimit, align 8
  %2 = load i32, ptr @max_files_per_process, align 4
  call void @llvm.lifetime.start.p0(i64 16, ptr nonnull %1) #25
  %3 = tail call ptr @palloc(i64 noundef 4096) #25
  %4 = call i32 @getrlimit(i32 noundef 7, ptr noundef nonnull %1) #25
  %.not.i = icmp eq i32 %4, 0
  br i1 %.not.i, label %.split.us.i.preheader, label %5

.split.us.i.preheader:                            ; preds = %0
  %smax21 = call i32 @llvm.smax.i32(i32 %2, i32 1)
  %wide.trip.count23 = zext nneg i32 %smax21 to i64
  br label %.split.us.i

5:                                                ; preds = %0
  %6 = call zeroext i1 @errstart(i32 noundef 19, ptr noundef null) #25
  br i1 %6, label %7, label %.split.preheader.i

7:                                                ; preds = %5
  %8 = call i32 (ptr, ...) @errmsg(ptr noundef nonnull @.str.50) #25
  call void @errfinish(ptr noundef nonnull @.str.1, i32 noundef 982, ptr noundef nonnull @__func__.count_usable_fds) #25
  br label %.split.preheader.i

.split.preheader.i:                               ; preds = %7, %5
  %smax = call i32 @llvm.smax.i32(i32 %2, i32 1)
  %wide.trip.count = zext nneg i32 %smax to i64
  br label %.split.i

.split.us.i:                                      ; preds = %.split.us.i.preheader, %select.unfold.us.i
  %indvars.iv19 = phi i64 [ 0, %.split.us.i.preheader ], [ %indvars.iv.next20, %select.unfold.us.i ]
  %.035.us.i = phi i32 [ 0, %.split.us.i.preheader ], [ %spec.select.us.i, %select.unfold.us.i ]
  %.031.us.i = phi i32 [ 1024, %.split.us.i.preheader ], [ %.233.us.i, %select.unfold.us.i ]
  %.030.us.i = phi ptr [ %3, %.split.us.i.preheader ], [ %.2.us.i, %select.unfold.us.i ]
  %9 = zext nneg i32 %.035.us.i to i64
  %10 = load i64, ptr %1, align 8
  %11 = add i64 %10, -1
  %.not44.us.i = icmp ugt i64 %11, %9
  br i1 %.not44.us.i, label %12, label %.preheader.i.loopexit

12:                                               ; preds = %.split.us.i
  %13 = call i32 @dup(i32 noundef 2) #25
  %14 = icmp slt i32 %13, 0
  br i1 %14, label %22, label %15

15:                                               ; preds = %12
  %16 = sext i32 %.031.us.i to i64
  %.not45.us.i = icmp slt i64 %indvars.iv19, %16
  br i1 %.not45.us.i, label %select.unfold.us.i, label %17

17:                                               ; preds = %15
  %18 = shl i32 %.031.us.i, 1
  %19 = sext i32 %18 to i64
  %20 = shl nsw i64 %19, 2
  %21 = call ptr @repalloc(ptr noundef %.030.us.i, i64 noundef %20) #25
  br label %select.unfold.us.i

22:                                               ; preds = %12
  %23 = trunc nuw nsw i64 %indvars.iv19 to i32
  %24 = tail call ptr @__errno_location() #26
  %25 = load i32, ptr %24, align 4
  %.off.us.i = add i32 %25, -23
  %switch49.us.i = icmp ult i32 %.off.us.i, 2
  br i1 %switch49.us.i, label %.preheader.i, label %26

26:                                               ; preds = %22
  %27 = call zeroext i1 @errstart(i32 noundef 19, ptr noundef null) #25
  br i1 %27, label %.preheader.sink.split.i, label %.preheader.i

select.unfold.us.i:                               ; preds = %17, %15
  %.233.us.i = phi i32 [ %18, %17 ], [ %.031.us.i, %15 ]
  %.2.us.i = phi ptr [ %21, %17 ], [ %.030.us.i, %15 ]
  %indvars.iv.next20 = add nuw nsw i64 %indvars.iv19, 1
  %28 = getelementptr inbounds nuw i32, ptr %.2.us.i, i64 %indvars.iv19
  store i32 %13, ptr %28, align 4
  %spec.select.us.i = call i32 @llvm.smax.i32(i32 %.035.us.i, i32 %13)
  %exitcond24.not = icmp eq i64 %indvars.iv.next20, %wide.trip.count23
  br i1 %exitcond24.not, label %.lr.ph.preheader.i, label %.split.us.i

.split.i:                                         ; preds = %select.unfold.i, %.split.preheader.i
  %indvars.iv = phi i64 [ %indvars.iv.next, %select.unfold.i ], [ 0, %.split.preheader.i ]
  %.035.i = phi i32 [ %spec.select.i, %select.unfold.i ], [ 0, %.split.preheader.i ]
  %.031.i = phi i32 [ %.233.i, %select.unfold.i ], [ 1024, %.split.preheader.i ]
  %.030.i = phi ptr [ %.2.i, %select.unfold.i ], [ %3, %.split.preheader.i ]
  %29 = call i32 @dup(i32 noundef 2) #25
  %30 = icmp slt i32 %29, 0
  br i1 %30, label %31, label %37

31:                                               ; preds = %.split.i
  %32 = trunc nuw nsw i64 %indvars.iv to i32
  %33 = tail call ptr @__errno_location() #26
  %34 = load i32, ptr %33, align 4
  %.off.i = add i32 %34, -23
  %switch49.i = icmp ult i32 %.off.i, 2
  br i1 %switch49.i, label %.preheader.i, label %35

35:                                               ; preds = %31
  %36 = call zeroext i1 @errstart(i32 noundef 19, ptr noundef null) #25
  br i1 %36, label %.preheader.sink.split.i, label %.preheader.i

37:                                               ; preds = %.split.i
  %38 = sext i32 %.031.i to i64
  %.not45.i = icmp slt i64 %indvars.iv, %38
  br i1 %.not45.i, label %select.unfold.i, label %39

39:                                               ; preds = %37
  %40 = shl i32 %.031.i, 1
  %41 = sext i32 %40 to i64
  %42 = shl nsw i64 %41, 2
  %43 = call ptr @repalloc(ptr noundef %.030.i, i64 noundef %42) #25
  br label %select.unfold.i

select.unfold.i:                                  ; preds = %39, %37
  %.233.i = phi i32 [ %40, %39 ], [ %.031.i, %37 ]
  %.2.i = phi ptr [ %43, %39 ], [ %.030.i, %37 ]
  %indvars.iv.next = add nuw nsw i64 %indvars.iv, 1
  %44 = getelementptr inbounds nuw i32, ptr %.2.i, i64 %indvars.iv
  store i32 %29, ptr %44, align 4
  %spec.select.i = call i32 @llvm.smax.i32(i32 %.035.i, i32 %29)
  %exitcond.not = icmp eq i64 %indvars.iv.next, %wide.trip.count
  br i1 %exitcond.not, label %.lr.ph.preheader.i, label %.split.i

.preheader.sink.split.i:                          ; preds = %35, %26
  %.038.lcssa.sink.i = phi i32 [ %23, %26 ], [ %32, %35 ]
  %.us-phi52.ph.i = phi i32 [ %.035.us.i, %26 ], [ %.035.i, %35 ]
  %.us-phi53.ph.i = phi ptr [ %.030.us.i, %26 ], [ %.030.i, %35 ]
  %45 = call i32 (ptr, ...) @errmsg_internal(ptr noundef nonnull @.str.51, i32 noundef %.038.lcssa.sink.i) #25
  call void @errfinish(ptr noundef nonnull @.str.1, i32 noundef 1005, ptr noundef nonnull @__func__.count_usable_fds) #25
  br label %.preheader.i

.preheader.i.loopexit:                            ; preds = %.split.us.i
  %46 = trunc nuw nsw i64 %indvars.iv19 to i32
  br label %.preheader.i

.preheader.i:                                     ; preds = %.preheader.i.loopexit, %.preheader.sink.split.i, %35, %31, %26, %22
  %.us-phi.i = phi i32 [ %23, %22 ], [ %23, %26 ], [ %32, %31 ], [ %32, %35 ], [ %.038.lcssa.sink.i, %.preheader.sink.split.i ], [ %46, %.preheader.i.loopexit ]
  %.us-phi52.i = phi i32 [ %.035.us.i, %22 ], [ %.035.us.i, %26 ], [ %.035.i, %31 ], [ %.035.i, %35 ], [ %.us-phi52.ph.i, %.preheader.sink.split.i ], [ %.035.us.i, %.preheader.i.loopexit ]
  %.us-phi53.i = phi ptr [ %.030.us.i, %22 ], [ %.030.us.i, %26 ], [ %.030.i, %31 ], [ %.030.i, %35 ], [ %.us-phi53.ph.i, %.preheader.sink.split.i ], [ %.030.us.i, %.preheader.i.loopexit ]
  %47 = icmp sgt i32 %.us-phi.i, 0
  br i1 %47, label %.lr.ph.preheader.i, label %count_usable_fds.exit

.lr.ph.preheader.i:                               ; preds = %select.unfold.i, %select.unfold.us.i, %.preheader.i
  %.us-phi53.i33 = phi ptr [ %.us-phi53.i, %.preheader.i ], [ %.2.us.i, %select.unfold.us.i ], [ %.2.i, %select.unfold.i ]
  %.us-phi52.i31 = phi i32 [ %.us-phi52.i, %.preheader.i ], [ %spec.select.us.i, %select.unfold.us.i ], [ %spec.select.i, %select.unfold.i ]
  %.us-phi.i29 = phi i32 [ %.us-phi.i, %.preheader.i ], [ %smax21, %select.unfold.us.i ], [ %smax, %select.unfold.i ]
  %wide.trip.count.i = zext nneg i32 %.us-phi.i29 to i64
  br label %.lr.ph.i

.lr.ph.i:                                         ; preds = %.lr.ph.i, %.lr.ph.preheader.i
  %indvars.iv.i = phi i64 [ 0, %.lr.ph.preheader.i ], [ %indvars.iv.next.i, %.lr.ph.i ]
  %48 = getelementptr inbounds nuw i32, ptr %.us-phi53.i33, i64 %indvars.iv.i
  %49 = load i32, ptr %48, align 4
  %50 = call i32 @close(i32 noundef %49) #25
  %indvars.iv.next.i = add nuw nsw i64 %indvars.iv.i, 1
  %exitcond.not.i = icmp eq i64 %indvars.iv.next.i, %wide.trip.count.i
  br i1 %exitcond.not.i, label %count_usable_fds.exit, label %.lr.ph.i, !llvm.loop !8

count_usable_fds.exit:                            ; preds = %.lr.ph.i, %.preheader.i
  %.us-phi53.i32 = phi ptr [ %.us-phi53.i, %.preheader.i ], [ %.us-phi53.i33, %.lr.ph.i ]
  %.us-phi52.i30 = phi i32 [ %.us-phi52.i, %.preheader.i ], [ %.us-phi52.i31, %.lr.ph.i ]
  %.us-phi.i28 = phi i32 [ %.us-phi.i, %.preheader.i ], [ %.us-phi.i29, %.lr.ph.i ]
  call void @pfree(ptr noundef %.us-phi53.i32) #25
  %reass.sub.i = sub i32 %.us-phi52.i30, %.us-phi.i28
  %51 = add i32 %reass.sub.i, 1
  call void @llvm.lifetime.end.p0(i64 16, ptr nonnull %1) #25
  %52 = load i32, ptr @max_files_per_process, align 4
  %53 = sub i32 %52, %51
  %54 = call i32 @llvm.smin.i32(i32 %.us-phi.i28, i32 %53)
  %55 = add i32 %54, -10
  store i32 %55, ptr @max_safe_fds, align 4
  %56 = icmp slt i32 %55, 48
  br i1 %56, label %57, label %64

57:                                               ; preds = %count_usable_fds.exit
  %58 = call zeroext i1 @errstart_cold(i32 noundef 22, ptr noundef null) #27
  call void @llvm.assume(i1 %58)
  %59 = call i32 @errcode(i32 noundef 197) #25
  %60 = call i32 (ptr, ...) @errmsg(ptr noundef nonnull @.str.9) #25
  %61 = load i32, ptr @max_safe_fds, align 4
  %62 = add i32 %61, 10
  %63 = call i32 (ptr, ...) @errdetail(ptr noundef nonnull @.str.10, i32 noundef %62, i32 noundef 58) #25
  call void @errfinish(ptr noundef nonnull @.str.1, i32 noundef 1075, ptr noundef nonnull @__func__.set_max_safe_fds) #25
  unreachable

64:                                               ; preds = %count_usable_fds.exit
  %65 = call zeroext i1 @errstart(i32 noundef 13, ptr noundef null) #25
  br i1 %65, label %66, label %69

66:                                               ; preds = %64
  %67 = load i32, ptr @max_safe_fds, align 4
  %68 = call i32 (ptr, ...) @errmsg_internal(ptr noundef nonnull @.str.11, i32 noundef %67, i32 noundef %.us-phi.i28, i32 noundef %51) #25
  call void @errfinish(ptr noundef nonnull @.str.1, i32 noundef 1078, ptr noundef nonnull @__func__.set_max_safe_fds) #25
  br label %69

69:                                               ; preds = %66, %64
  ret void
}